target datalayout = "e-m:e-p270:32:32-p271:32:32-p272:64:64-i64:64-i128:128-f80:128-n8:16:32:64-S128"
target triple = "x86_64-pc-linux-gnu"

%class.PickedPointTreeWidgetItem = type <{ %class.QTreeWidgetItem.base, %"class.vcg::Point3", %"class.vcg::Point3", i8, [3 x i8] }>
%class.QTreeWidgetItem.base = type <{ ptr, i32, [4 x i8], %class.QVector, ptr, ptr, ptr, %class.QList, %class.QFlags }>
%class.QVector = type { ptr }
%class.QList = type { %union.anon }
%union.anon = type { %struct.QListData }
%struct.QListData = type { ptr }
%class.QFlags = type { i32 }
%"class.vcg::Point3" = type { [3 x float] }

; Function Attrs: mustprogress nounwind uwtable
define { <2 x float>, float } @_ZN25PickedPointTreeWidgetItem9getNormalEv(ptr noundef nonnull align 8 dereferenceable(85) %0) #4 align 2 {
  %2 = alloca %"class.vcg::Point3", align 4
  %3 = alloca ptr, align 8
  %4 = alloca { <2 x float>, float }, align 8
  store ptr %0, ptr %3, align 8
  %5 = load ptr, ptr %3, align 8
  %6 = getelementptr inbounds %class.PickedPointTreeWidgetItem, ptr %5, i32 0, i32 2
  call void @llvm.memcpy.p0.p0.i64(ptr align 4 %2, ptr align 8 %6, i64 12, i1 false)
  %7 = getelementptr inbounds %"class.vcg::Point3", ptr %2, i32 0, i32 0
  call void @llvm.memcpy.p0.p0.i64(ptr align 8 %4, ptr align 4 %7, i64 12, i1 false)
  %8 = load { <2 x float>, float }, ptr %4, align 8
  ret { <2 x float>, float } %8
}