; Function Attrs: mustprogress nofree norecurse nosync nounwind willreturn memory(argmem: read) uwtable
define { <2 x float>, float } @_ZN25PickedPointTreeWidgetItem9getNormalEv(ptr nocapture noundef nonnull readonly align 8 dereferenceable(85) %0) local_unnamed_addr #11 align 2 {
  %2 = getelementptr inbounds i8, ptr %0, i64 72
  %.sroa.01.0.copyload = load <2 x float>, ptr %2, align 8
  %.sroa.22.0..sroa_idx = getelementptr inbounds i8, ptr %0, i64 80
  %.sroa.22.0.copyload = load float, ptr %.sroa.22.0..sroa_idx, align 8
  %.fca.0.insert = insertvalue { <2 x float>, float } poison, <2 x float> %.sroa.01.0.copyload, 0
  %.fca.1.insert = insertvalue { <2 x float>, float } %.fca.0.insert, float %.sroa.22.0.copyload, 1
  ret { <2 x float>, float } %.fca.1.insert
}